; Function Attrs: mustprogress uwtable
define noundef ptr @_ZN6casadi8OptiNode6createERKNSt7__cxx1112basic_stringIcSt11char_traitsIcESaIcEEE(ptr noundef nonnull align 8 dereferenceable(32) %0) local_unnamed_addr #3 align 2 personality ptr @__gxx_personality_v0 {
  %2 = tail call noalias noundef nonnull dereferenceable(672) ptr @_Znwm(i64 noundef 672) #23
  invoke void @_ZN6casadi8OptiNodeC1ERKNSt7__cxx1112basic_stringIcSt11char_traitsIcESaIcEEE(ptr noundef nonnull align 8 dereferenceable(672) %2, ptr noundef nonnull align 8 dereferenceable(32) %0)
          to label %3 unwind label %4

3:                                                ; preds = %1
  ret ptr %2

4:                                                ; preds = %1
  %5 = landingpad { ptr, i32 }
          cleanup
  tail call void @_ZdlPv(ptr noundef nonnull %2) #22
  resume { ptr, i32 } %5
}